; Function Attrs: nounwind uwtable
define ptr @sprintXDot(ptr noundef readonly captures(none) %0) local_unnamed_addr #0 {
  %2 = alloca %struct.agxbuf, align 8
  call void @llvm.lifetime.start.p0(i64 32, ptr nonnull %2) #20
  call void @llvm.memset.p0.i64(ptr noundef nonnull align 8 dereferenceable(32) %2, i8 0, i64 32, i1 false)
  %3 = getelementptr inbounds nuw i8, ptr %0, i64 16
  %4 = load ptr, ptr %3, align 8, !tbaa !14
  %5 = load i64, ptr %0, align 8, !tbaa !13
  %.not.i = icmp eq i64 %5, 0
  br i1 %.not.i, label %agxblen.exit.i, label %.lr.ph.i

.lr.ph.i:                                         ; preds = %1
  %6 = getelementptr inbounds nuw i8, ptr %0, i64 8
  br label %7

7:                                                ; preds = %7, %.lr.ph.i
  %8 = phi i64 [ %5, %.lr.ph.i ], [ %16, %7 ]
  %.013.i = phi i64 [ 0, %.lr.ph.i ], [ %15, %7 ]
  %9 = load i64, ptr %6, align 8, !tbaa !8
  %10 = mul i64 %9, %.013.i
  %11 = getelementptr inbounds nuw i8, ptr %4, i64 %10
  %12 = add i64 %8, -1
  %13 = icmp ult i64 %.013.i, %12
  %14 = zext i1 %13 to i32
  call fastcc void @printXDot_Op(ptr noundef %11, ptr noundef nonnull @agxbprint, ptr noundef nonnull %2, i32 noundef %14) #20, !callees !38
  %15 = add nuw i64 %.013.i, 1
  %16 = load i64, ptr %0, align 8, !tbaa !13
  %17 = icmp ult i64 %15, %16
  br i1 %17, label %7, label %_printXDot.exit, !llvm.loop !39

_printXDot.exit:                                  ; preds = %7
  %.phi.trans.insert = getelementptr inbounds nuw i8, ptr %2, i64 31
  %.val.i.pre = load i8, ptr %.phi.trans.insert, align 1, !tbaa !15
  %18 = getelementptr inbounds nuw i8, ptr %2, i64 31
  %.not.i1 = icmp eq i8 %.val.i.pre, -1
  br i1 %.not.i1, label %agxbsizeof.exit.i.i, label %agxblen.exit.i

agxblen.exit.i:                                   ; preds = %1, %_printXDot.exit
  %.val.i5 = phi i8 [ %.val.i.pre, %_printXDot.exit ], [ 0, %1 ]
  %19 = zext i8 %.val.i5 to i64
  %20 = call noalias ptr @strndup(ptr noundef nonnull readonly %2, i64 noundef %19) #20
  %21 = icmp eq ptr %20, null
  br i1 %21, label %22, label %agxbdisown.exit

22:                                               ; preds = %agxblen.exit.i
  %23 = load ptr, ptr @stderr, align 8, !tbaa !3
  %24 = add nuw nsw i64 %19, 1
  %25 = call i32 (ptr, ptr, ...) @fprintf(ptr noundef %23, ptr noundef nonnull @.str.3, i64 noundef %24) #22
  call fastcc void @graphviz_exit() #23
  unreachable

agxbsizeof.exit.i.i:                              ; preds = %_printXDot.exit
  %26 = getelementptr inbounds nuw i8, ptr %2, i64 8
  %27 = load i64, ptr %26, align 8, !tbaa !15
  %28 = getelementptr inbounds nuw i8, ptr %2, i64 16
  %29 = load i64, ptr %28, align 8, !tbaa !15
  %.not.i7.i = icmp ult i64 %27, %29
  br i1 %.not.i7.i, label %.thread.i, label %30

30:                                               ; preds = %agxbsizeof.exit.i.i
  call fastcc void @agxbmore(ptr noundef nonnull %2, i64 noundef 1)
  %.val.i15.pre.i.i = load i8, ptr %18, align 1, !tbaa !15
  %.not.i16.i.i = icmp eq i8 %.val.i15.pre.i.i, -1
  br i1 %.not.i16.i.i, label %..thread_crit_edge.i, label %31

..thread_crit_edge.i:                             ; preds = %30
  %.pre.i = load i64, ptr %26, align 8, !tbaa !15
  br label %.thread.i

31:                                               ; preds = %30
  %32 = zext i8 %.val.i15.pre.i.i to i64
  %33 = getelementptr inbounds nuw [31 x i8], ptr %2, i64 0, i64 %32
  store i8 0, ptr %33, align 1, !tbaa !15
  br label %agxbputc.exit.i

.thread.i:                                        ; preds = %..thread_crit_edge.i, %agxbsizeof.exit.i.i
  %34 = phi i64 [ %.pre.i, %..thread_crit_edge.i ], [ %27, %agxbsizeof.exit.i.i ]
  %35 = load ptr, ptr %2, align 8, !tbaa !15
  %36 = getelementptr inbounds nuw i8, ptr %35, i64 %34
  store i8 0, ptr %36, align 1, !tbaa !15
  br label %agxbputc.exit.i

agxbputc.exit.i:                                  ; preds = %.thread.i, %31
  %37 = load ptr, ptr %2, align 8, !tbaa !15
  br label %agxbdisown.exit

agxbdisown.exit:                                  ; preds = %agxblen.exit.i, %agxbputc.exit.i
  %.0.i = phi ptr [ %37, %agxbputc.exit.i ], [ %20, %agxblen.exit.i ]
  call void @llvm.lifetime.end.p0(i64 32, ptr nonnull %2) #20
  ret ptr %.0.i
}